; Function Attrs: mustprogress nofree norecurse nosync nounwind willreturn memory(none) uwtable
define noundef range(i32 -1, 256) i32 @_ZN9grpc_core18Histogram_65536_269BucketForEi(i32 noundef %0) #3 align 2 {
  %2 = icmp slt i32 %0, 3
  br i1 %2, label %3, label %4

3:                                                ; preds = %1
  %. = tail call i32 @llvm.smax.i32(i32 %0, i32 0)
  br label %19

4:                                                ; preds = %1
  %5 = icmp samesign ult i32 %0, 49153
  br i1 %5, label %6, label %19

6:                                                ; preds = %4
  %7 = uitofp nneg i32 %0 to double
  %8 = bitcast double %7 to i64
  %9 = add nsw i64 %8, -4613937818241073152
  %10 = lshr i64 %9, 51
  %11 = getelementptr inbounds nuw [29 x i8], ptr @_ZN9grpc_core12_GLOBAL__N_112kStatsTable3E, i64 0, i64 %10
  %12 = load i8, ptr %11, align 1, !tbaa !22
  %13 = zext i8 %12 to i32
  %14 = zext i8 %12 to i64
  %15 = getelementptr inbounds nuw [27 x i32], ptr @_ZN9grpc_core12_GLOBAL__N_112kStatsTable2E, i64 0, i64 %14
  %16 = load i32, ptr %15, align 4, !tbaa !23
  %17 = icmp slt i32 %0, %16
  %.neg = sext i1 %17 to i32
  %18 = add nsw i32 %.neg, %13
  br label %19

19:                                               ; preds = %4, %3, %6
  %.0 = phi i32 [ %18, %6 ], [ %., %3 ], [ 25, %4 ]
  ret i32 %.0
}